; Function Attrs: mustprogress nofree norecurse nosync nounwind willreturn memory(argmem: write) uwtable
define noundef ptr @LZ4_initStream(ptr noundef %0, i64 noundef %1) local_unnamed_addr #3 {
  %3 = icmp ne ptr %0, null
  %4 = icmp ugt i64 %1, 16415
  %or.cond.not10 = and i1 %3, %4
  %5 = ptrtoint ptr %0 to i64
  %6 = and i64 %5, 7
  %.not = icmp eq i64 %6, 0
  %or.cond7 = and i1 %or.cond.not10, %.not
  br i1 %or.cond7, label %7, label %8

7:                                                ; preds = %2
  tail call void @llvm.memset.p0.i64(ptr noundef nonnull align 1 dereferenceable(16416) %0, i8 0, i64 16416, i1 false)
  br label %8

8:                                                ; preds = %2, %7
  %.0 = phi ptr [ %0, %7 ], [ null, %2 ]
  ret ptr %.0
}